#include <math.h>
#include <stdio.h>
#include <stdlib.h>
#include <string.h>

int main ()
{  int i,m,n,sum=0,max,min;
   int num[300];
   scanf("%d",&n);
   for(i=0;i<n;i++)
	  { scanf("%d",&num[i]);
         sum+=num[i];
	  }
   max=num[0];
   min=num[0];
   for(i=0;i<n;i++)
   {  if(num[i]>max) max=num[i];
      if(num[i]<min) min=num[i];
   }
   m=2*sum-n*(max+min);
   if(n==1) printf("%d",num[0]);
   if(m>0) printf("%d",min);
   if(m==0&&n!=1) printf("%d,%d",min,max);
   if(m<0) printf("%d",max);
   return 0;
}