; ModuleID = '21/880.c'
source_filename = "21/880.c"
target datalayout = "e-m:e-p270:32:32-p271:32:32-p272:64:64-i64:64-f80:128-n8:16:32:64-S128"
target triple = "x86_64-pc-linux-gnu"

@.str = private unnamed_addr constant [3 x i8] c"%d\00", align 1
@.str.1 = private unnamed_addr constant [6 x i8] c"%d,%d\00", align 1

; Function Attrs: noinline nounwind uwtable
define dso_local i32 @main() #0 {
  %1 = alloca i32, align 4
  %2 = alloca i32, align 4
  %3 = alloca i32, align 4
  %4 = alloca i32, align 4
  %5 = alloca i32, align 4
  %6 = alloca i32, align 4
  %7 = alloca i32, align 4
  %8 = alloca [300 x i32], align 16
  store i32 0, i32* %1, align 4
  store i32 0, i32* %5, align 4
  %9 = call i32 (i8*, ...) @__isoc99_scanf(i8* getelementptr inbounds ([3 x i8], [3 x i8]* @.str, i64 0, i64 0), i32* %4)
  store i32 0, i32* %2, align 4
  br label %10

10:                                               ; preds = %25, %0
  %11 = load i32, i32* %2, align 4
  %12 = load i32, i32* %4, align 4
  %13 = icmp slt i32 %11, %12
  br i1 %13, label %14, label %28

14:                                               ; preds = %10
  %15 = load i32, i32* %2, align 4
  %16 = sext i32 %15 to i64
  %17 = getelementptr inbounds [300 x i32], [300 x i32]* %8, i64 0, i64 %16
  %18 = call i32 (i8*, ...) @__isoc99_scanf(i8* getelementptr inbounds ([3 x i8], [3 x i8]* @.str, i64 0, i64 0), i32* %17)
  %19 = load i32, i32* %2, align 4
  %20 = sext i32 %19 to i64
  %21 = getelementptr inbounds [300 x i32], [300 x i32]* %8, i64 0, i64 %20
  %22 = load i32, i32* %21, align 4
  %23 = load i32, i32* %5, align 4
  %24 = add nsw i32 %23, %22
  store i32 %24, i32* %5, align 4
  br label %25

25:                                               ; preds = %14
  %26 = load i32, i32* %2, align 4
  %27 = add nsw i32 %26, 1
  store i32 %27, i32* %2, align 4
  br label %10

28:                                               ; preds = %10
  %29 = getelementptr inbounds [300 x i32], [300 x i32]* %8, i64 0, i64 0
  %30 = load i32, i32* %29, align 16
  store i32 %30, i32* %6, align 4
  %31 = getelementptr inbounds [300 x i32], [300 x i32]* %8, i64 0, i64 0
  %32 = load i32, i32* %31, align 16
  store i32 %32, i32* %7, align 4
  store i32 0, i32* %2, align 4
  br label %33

33:                                               ; preds = %62, %28
  %34 = load i32, i32* %2, align 4
  %35 = load i32, i32* %4, align 4
  %36 = icmp slt i32 %34, %35
  br i1 %36, label %37, label %65

37:                                               ; preds = %33
  %38 = load i32, i32* %2, align 4
  %39 = sext i32 %38 to i64
  %40 = getelementptr inbounds [300 x i32], [300 x i32]* %8, i64 0, i64 %39
  %41 = load i32, i32* %40, align 4
  %42 = load i32, i32* %6, align 4
  %43 = icmp sgt i32 %41, %42
  br i1 %43, label %44, label %49

44:                                               ; preds = %37
  %45 = load i32, i32* %2, align 4
  %46 = sext i32 %45 to i64
  %47 = getelementptr inbounds [300 x i32], [300 x i32]* %8, i64 0, i64 %46
  %48 = load i32, i32* %47, align 4
  store i32 %48, i32* %6, align 4
  br label %49

49:                                               ; preds = %44, %37
  %50 = load i32, i32* %2, align 4
  %51 = sext i32 %50 to i64
  %52 = getelementptr inbounds [300 x i32], [300 x i32]* %8, i64 0, i64 %51
  %53 = load i32, i32* %52, align 4
  %54 = load i32, i32* %7, align 4
  %55 = icmp slt i32 %53, %54
  br i1 %55, label %56, label %61

56:                                               ; preds = %49
  %57 = load i32, i32* %2, align 4
  %58 = sext i32 %57 to i64
  %59 = getelementptr inbounds [300 x i32], [300 x i32]* %8, i64 0, i64 %58
  %60 = load i32, i32* %59, align 4
  store i32 %60, i32* %7, align 4
  br label %61

61:                                               ; preds = %56, %49
  br label %62

62:                                               ; preds = %61
  %63 = load i32, i32* %2, align 4
  %64 = add nsw i32 %63, 1
  store i32 %64, i32* %2, align 4
  br label %33

65:                                               ; preds = %33
  %66 = load i32, i32* %5, align 4
  %67 = mul nsw i32 2, %66
  %68 = load i32, i32* %4, align 4
  %69 = load i32, i32* %6, align 4
  %70 = load i32, i32* %7, align 4
  %71 = add nsw i32 %69, %70
  %72 = mul nsw i32 %68, %71
  %73 = sub nsw i32 %67, %72
  store i32 %73, i32* %3, align 4
  %74 = load i32, i32* %4, align 4
  %75 = icmp eq i32 %74, 1
  br i1 %75, label %76, label %80

76:                                               ; preds = %65
  %77 = getelementptr inbounds [300 x i32], [300 x i32]* %8, i64 0, i64 0
  %78 = load i32, i32* %77, align 16
  %79 = call i32 (i8*, ...) @printf(i8* getelementptr inbounds ([3 x i8], [3 x i8]* @.str, i64 0, i64 0), i32 %78)
  br label %80

80:                                               ; preds = %76, %65
  %81 = load i32, i32* %3, align 4
  %82 = icmp sgt i32 %81, 0
  br i1 %82, label %83, label %86

83:                                               ; preds = %80
  %84 = load i32, i32* %7, align 4
  %85 = call i32 (i8*, ...) @printf(i8* getelementptr inbounds ([3 x i8], [3 x i8]* @.str, i64 0, i64 0), i32 %84)
  br label %86

86:                                               ; preds = %83, %80
  %87 = load i32, i32* %3, align 4
  %88 = icmp eq i32 %87, 0
  br i1 %88, label %89, label %96

89:                                               ; preds = %86
  %90 = load i32, i32* %4, align 4
  %91 = icmp ne i32 %90, 1
  br i1 %91, label %92, label %96

92:                                               ; preds = %89
  %93 = load i32, i32* %7, align 4
  %94 = load i32, i32* %6, align 4
  %95 = call i32 (i8*, ...) @printf(i8* getelementptr inbounds ([6 x i8], [6 x i8]* @.str.1, i64 0, i64 0), i32 %93, i32 %94)
  br label %96

96:                                               ; preds = %92, %89, %86
  %97 = load i32, i32* %3, align 4
  %98 = icmp slt i32 %97, 0
  br i1 %98, label %99, label %102

99:                                               ; preds = %96
  %100 = load i32, i32* %6, align 4
  %101 = call i32 (i8*, ...) @printf(i8* getelementptr inbounds ([3 x i8], [3 x i8]* @.str, i64 0, i64 0), i32 %100)
  br label %102

102:                                              ; preds = %99, %96
  ret i32 0
}

declare dso_local i32 @__isoc99_scanf(i8*, ...) #1

declare dso_local i32 @printf(i8*, ...) #1


!llvm.module.flags = !{!0}
!llvm.ident = !{!1}

!0 = !{i32 1, !"wchar_size", i32 4}
!1 = !{!"clang version 10.0.0-4ubuntu1 "}
